target datalayout = "e-m:e-p270:32:32-p271:32:32-p272:64:64-i64:64-i128:128-f80:128-n8:16:32:64-S128"
target triple = "x86_64-pc-linux-gnu"

%struct.pairingheap_node = type { ptr, ptr, ptr }
%struct.SnapshotData = type { i32, i32, i32, ptr, i32, ptr, i32, i8, i8, i8, i32, i32, ptr, i32, i32, %struct.pairingheap_node, i64 }
%struct.SerializedSnapshotData = type { i32, i32, i32, i32, i8, i8, i32 }

; Function Attrs: nounwind uwtable
define dso_local void @SerializeSnapshot(ptr noundef %0, ptr noundef %1) #0 {
  %3 = alloca ptr, align 8
  %4 = alloca ptr, align 8
  %5 = alloca %struct.SerializedSnapshotData, align 4
  %6 = alloca i64, align 8
  store ptr %0, ptr %3, align 8
  store ptr %1, ptr %4, align 8
  call void @llvm.lifetime.start.p0(i64 24, ptr %5) #14
  %7 = load ptr, ptr %3, align 8
  %8 = getelementptr inbounds nuw %struct.SnapshotData, ptr %7, i32 0, i32 1
  %9 = load i32, ptr %8, align 4
  %10 = getelementptr inbounds nuw %struct.SerializedSnapshotData, ptr %5, i32 0, i32 0
  store i32 %9, ptr %10, align 4
  %11 = load ptr, ptr %3, align 8
  %12 = getelementptr inbounds nuw %struct.SnapshotData, ptr %11, i32 0, i32 2
  %13 = load i32, ptr %12, align 8
  %14 = getelementptr inbounds nuw %struct.SerializedSnapshotData, ptr %5, i32 0, i32 1
  store i32 %13, ptr %14, align 4
  %15 = load ptr, ptr %3, align 8
  %16 = getelementptr inbounds nuw %struct.SnapshotData, ptr %15, i32 0, i32 4
  %17 = load i32, ptr %16, align 8
  %18 = getelementptr inbounds nuw %struct.SerializedSnapshotData, ptr %5, i32 0, i32 2
  store i32 %17, ptr %18, align 4
  %19 = load ptr, ptr %3, align 8
  %20 = getelementptr inbounds nuw %struct.SnapshotData, ptr %19, i32 0, i32 6
  %21 = load i32, ptr %20, align 8
  %22 = getelementptr inbounds nuw %struct.SerializedSnapshotData, ptr %5, i32 0, i32 3
  store i32 %21, ptr %22, align 4
  %23 = load ptr, ptr %3, align 8
  %24 = getelementptr inbounds nuw %struct.SnapshotData, ptr %23, i32 0, i32 7
  %25 = load i8, ptr %24, align 4, !range !4, !noundef !5
  %26 = trunc i8 %25 to i1
  %27 = getelementptr inbounds nuw %struct.SerializedSnapshotData, ptr %5, i32 0, i32 4
  %28 = zext i1 %26 to i8
  store i8 %28, ptr %27, align 4
  %29 = load ptr, ptr %3, align 8
  %30 = getelementptr inbounds nuw %struct.SnapshotData, ptr %29, i32 0, i32 8
  %31 = load i8, ptr %30, align 1, !range !4, !noundef !5
  %32 = trunc i8 %31 to i1
  %33 = getelementptr inbounds nuw %struct.SerializedSnapshotData, ptr %5, i32 0, i32 5
  %34 = zext i1 %32 to i8
  store i8 %34, ptr %33, align 1
  %35 = load ptr, ptr %3, align 8
  %36 = getelementptr inbounds nuw %struct.SnapshotData, ptr %35, i32 0, i32 10
  %37 = load i32, ptr %36, align 8
  %38 = getelementptr inbounds nuw %struct.SerializedSnapshotData, ptr %5, i32 0, i32 6
  store i32 %37, ptr %38, align 4
  %39 = getelementptr inbounds nuw %struct.SerializedSnapshotData, ptr %5, i32 0, i32 4
  %40 = load i8, ptr %39, align 4, !range !4, !noundef !5
  %41 = trunc i8 %40 to i1
  br i1 %41, label %42, label %49

42:                                               ; preds = %2
  %43 = load ptr, ptr %3, align 8
  %44 = getelementptr inbounds nuw %struct.SnapshotData, ptr %43, i32 0, i32 8
  %45 = load i8, ptr %44, align 1, !range !4, !noundef !5
  %46 = trunc i8 %45 to i1
  br i1 %46, label %49, label %47

47:                                               ; preds = %42
  %48 = getelementptr inbounds nuw %struct.SerializedSnapshotData, ptr %5, i32 0, i32 3
  store i32 0, ptr %48, align 4
  br label %49

49:                                               ; preds = %47, %42, %2
  %50 = load ptr, ptr %4, align 8
  call void @llvm.memcpy.p0.p0.i64(ptr align 1 %50, ptr align 4 %5, i64 24, i1 false)
  %51 = load ptr, ptr %3, align 8
  %52 = getelementptr inbounds nuw %struct.SnapshotData, ptr %51, i32 0, i32 4
  %53 = load i32, ptr %52, align 8
  %54 = icmp ugt i32 %53, 0
  br i1 %54, label %55, label %66

55:                                               ; preds = %49
  %56 = load ptr, ptr %4, align 8
  %57 = getelementptr inbounds nuw i8, ptr %56, i64 24
  %58 = load ptr, ptr %3, align 8
  %59 = getelementptr inbounds nuw %struct.SnapshotData, ptr %58, i32 0, i32 3
  %60 = load ptr, ptr %59, align 8
  %61 = load ptr, ptr %3, align 8
  %62 = getelementptr inbounds nuw %struct.SnapshotData, ptr %61, i32 0, i32 4
  %63 = load i32, ptr %62, align 8
  %64 = zext i32 %63 to i64
  %65 = mul i64 %64, 4
  call void @llvm.memcpy.p0.p0.i64(ptr align 4 %57, ptr align 4 %60, i64 %65, i1 false)
  br label %66

66:                                               ; preds = %55, %49
  %67 = getelementptr inbounds nuw %struct.SerializedSnapshotData, ptr %5, i32 0, i32 3
  %68 = load i32, ptr %67, align 4
  %69 = icmp sgt i32 %68, 0
  br i1 %69, label %70, label %88

70:                                               ; preds = %66
  call void @llvm.lifetime.start.p0(i64 8, ptr %6) #14
  %71 = load ptr, ptr %3, align 8
  %72 = getelementptr inbounds nuw %struct.SnapshotData, ptr %71, i32 0, i32 4
  %73 = load i32, ptr %72, align 8
  %74 = zext i32 %73 to i64
  %75 = mul i64 %74, 4
  %76 = add i64 24, %75
  store i64 %76, ptr %6, align 8
  %77 = load ptr, ptr %4, align 8
  %78 = load i64, ptr %6, align 8
  %79 = getelementptr inbounds nuw i8, ptr %77, i64 %78
  %80 = load ptr, ptr %3, align 8
  %81 = getelementptr inbounds nuw %struct.SnapshotData, ptr %80, i32 0, i32 5
  %82 = load ptr, ptr %81, align 8
  %83 = load ptr, ptr %3, align 8
  %84 = getelementptr inbounds nuw %struct.SnapshotData, ptr %83, i32 0, i32 6
  %85 = load i32, ptr %84, align 8
  %86 = sext i32 %85 to i64
  %87 = mul i64 %86, 4
  call void @llvm.memcpy.p0.p0.i64(ptr align 4 %79, ptr align 4 %82, i64 %87, i1 false)
  call void @llvm.lifetime.end.p0(i64 8, ptr %6) #14
  br label %88

88:                                               ; preds = %70, %66
  call void @llvm.lifetime.end.p0(i64 24, ptr %5) #14
  ret void
}