; Function Attrs: mustprogress nofree norecurse nosync nounwind willreturn memory(readwrite, inaccessiblemem: none) uwtable
define dso_local void @SerializeSnapshot(ptr noundef readonly captures(none) %0, ptr noundef writeonly captures(none) initializes((0, 18), (20, 24)) %1) local_unnamed_addr #13 {
  %3 = getelementptr inbounds nuw i8, ptr %0, i64 4
  %4 = load i32, ptr %3, align 4
  %5 = getelementptr inbounds nuw i8, ptr %0, i64 8
  %6 = load i32, ptr %5, align 8
  %7 = getelementptr inbounds nuw i8, ptr %0, i64 24
  %8 = load i32, ptr %7, align 8
  %9 = getelementptr inbounds nuw i8, ptr %0, i64 40
  %10 = load i32, ptr %9, align 8
  %11 = getelementptr inbounds nuw i8, ptr %0, i64 44
  %12 = load i8, ptr %11, align 4, !range !4, !noundef !5
  %13 = trunc nuw i8 %12 to i1
  %14 = getelementptr inbounds nuw i8, ptr %0, i64 45
  %15 = load i8, ptr %14, align 1, !range !4, !noundef !5
  %16 = getelementptr inbounds nuw i8, ptr %0, i64 48
  %17 = load i32, ptr %16, align 8
  %18 = trunc nuw i8 %15 to i1
  %spec.select = select i1 %18, i32 %10, i32 0
  %.sroa.6.0 = select i1 %13, i32 %spec.select, i32 %10
  store i32 %4, ptr %1, align 1
  %.sroa.4.0..sroa_idx = getelementptr inbounds nuw i8, ptr %1, i64 4
  store i32 %6, ptr %.sroa.4.0..sroa_idx, align 1
  %.sroa.5.0..sroa_idx = getelementptr inbounds nuw i8, ptr %1, i64 8
  store i32 %8, ptr %.sroa.5.0..sroa_idx, align 1
  %.sroa.6.0..sroa_idx = getelementptr inbounds nuw i8, ptr %1, i64 12
  store i32 %.sroa.6.0, ptr %.sroa.6.0..sroa_idx, align 1
  %.sroa.9.0..sroa_idx = getelementptr inbounds nuw i8, ptr %1, i64 16
  store i8 %12, ptr %.sroa.9.0..sroa_idx, align 1
  %.sroa.11.0..sroa_idx = getelementptr inbounds nuw i8, ptr %1, i64 17
  store i8 %15, ptr %.sroa.11.0..sroa_idx, align 1
  %.sroa.121.0..sroa_idx = getelementptr inbounds nuw i8, ptr %1, i64 20
  store i32 %17, ptr %.sroa.121.0..sroa_idx, align 1
  %19 = load i32, ptr %7, align 8
  %.not = icmp eq i32 %19, 0
  br i1 %.not, label %26, label %20

20:                                               ; preds = %2
  %21 = getelementptr inbounds nuw i8, ptr %1, i64 24
  %22 = getelementptr inbounds nuw i8, ptr %0, i64 16
  %23 = load ptr, ptr %22, align 8
  %24 = zext i32 %19 to i64
  %25 = shl nuw nsw i64 %24, 2
  tail call void @llvm.memcpy.p0.p0.i64(ptr nonnull align 4 %21, ptr align 4 %23, i64 %25, i1 false)
  br label %26

26:                                               ; preds = %20, %2
  %27 = icmp sgt i32 %.sroa.6.0, 0
  br i1 %27, label %28, label %39

28:                                               ; preds = %26
  %29 = load i32, ptr %7, align 8
  %30 = zext i32 %29 to i64
  %31 = shl nuw nsw i64 %30, 2
  %32 = getelementptr inbounds nuw i8, ptr %1, i64 %31
  %33 = getelementptr inbounds nuw i8, ptr %32, i64 24
  %34 = getelementptr inbounds nuw i8, ptr %0, i64 32
  %35 = load ptr, ptr %34, align 8
  %36 = load i32, ptr %9, align 8
  %37 = sext i32 %36 to i64
  %38 = shl nsw i64 %37, 2
  tail call void @llvm.memcpy.p0.p0.i64(ptr nonnull align 4 %33, ptr align 4 %35, i64 %38, i1 false)
  br label %39

39:                                               ; preds = %28, %26
  ret void
}